; ModuleID = '19/1289.c'
source_filename = "19/1289.c"
target datalayout = "e-m:e-p270:32:32-p271:32:32-p272:64:64-i64:64-f80:128-n8:16:32:64-S128"
target triple = "x86_64-pc-linux-gnu"

@.str = private unnamed_addr constant [5 x i8] c"%s%s\00", align 1
@.str.1 = private unnamed_addr constant [3 x i8] c"%s\00", align 1
@.str.2 = private unnamed_addr constant [3 x i8] c"%c\00", align 1

; Function Attrs: noinline nounwind uwtable
define dso_local i32 @main() #0 {
  %1 = alloca i32, align 4
  %2 = alloca [110 x i8], align 16
  %3 = alloca [110 x i8], align 16
  %4 = alloca [110 x i8], align 16
  %5 = alloca i32, align 4
  %6 = alloca i32, align 4
  %7 = alloca i32, align 4
  %8 = alloca i32, align 4
  %9 = alloca [30 x i32], align 16
  %10 = alloca i32, align 4
  %11 = alloca i32, align 4
  %12 = alloca i32, align 4
  %13 = alloca i32, align 4
  store i32 0, i32* %1, align 4
  %14 = getelementptr inbounds [110 x i8], [110 x i8]* %2, i64 0, i64 0
  %15 = call i32 (i8*, ...) bitcast (i32 (...)* @gets to i32 (i8*, ...)*)(i8* %14)
  %16 = getelementptr inbounds [110 x i8], [110 x i8]* %3, i64 0, i64 0
  %17 = getelementptr inbounds [110 x i8], [110 x i8]* %4, i64 0, i64 0
  %18 = call i32 (i8*, ...) @__isoc99_scanf(i8* getelementptr inbounds ([5 x i8], [5 x i8]* @.str, i64 0, i64 0), i8* %16, i8* %17)
  %19 = getelementptr inbounds [110 x i8], [110 x i8]* %2, i64 0, i64 0
  %20 = call i64 @strlen(i8* %19) #3
  %21 = trunc i64 %20 to i32
  store i32 %21, i32* %5, align 4
  %22 = getelementptr inbounds [110 x i8], [110 x i8]* %3, i64 0, i64 0
  %23 = call i64 @strlen(i8* %22) #3
  %24 = trunc i64 %23 to i32
  store i32 %24, i32* %6, align 4
  store i32 0, i32* %10, align 4
  store i32 0, i32* %7, align 4
  br label %25

25:                                               ; preds = %89, %0
  %26 = load i32, i32* %7, align 4
  %27 = load i32, i32* %5, align 4
  %28 = icmp slt i32 %26, %27
  br i1 %28, label %29, label %92

29:                                               ; preds = %25
  %30 = load i32, i32* %7, align 4
  %31 = sext i32 %30 to i64
  %32 = getelementptr inbounds [110 x i8], [110 x i8]* %2, i64 0, i64 %31
  %33 = load i8, i8* %32, align 1
  %34 = sext i8 %33 to i32
  %35 = icmp eq i32 %34, 32
  br i1 %35, label %39, label %36

36:                                               ; preds = %29
  %37 = load i32, i32* %7, align 4
  %38 = icmp eq i32 %37, 0
  br i1 %38, label %39, label %88

39:                                               ; preds = %36, %29
  store i32 0, i32* %11, align 4
  %40 = load i32, i32* %7, align 4
  %41 = icmp eq i32 %40, 0
  br i1 %41, label %42, label %43

42:                                               ; preds = %39
  store i32 0, i32* %12, align 4
  br label %46

43:                                               ; preds = %39
  %44 = load i32, i32* %7, align 4
  %45 = add nsw i32 %44, 1
  store i32 %45, i32* %12, align 4
  br label %46

46:                                               ; preds = %43, %42
  %47 = load i32, i32* %12, align 4
  store i32 %47, i32* %8, align 4
  br label %48

48:                                               ; preds = %73, %46
  %49 = load i32, i32* %8, align 4
  %50 = load i32, i32* %12, align 4
  %51 = load i32, i32* %6, align 4
  %52 = add nsw i32 %50, %51
  %53 = sub nsw i32 %52, 1
  %54 = icmp sle i32 %49, %53
  br i1 %54, label %55, label %76

55:                                               ; preds = %48
  %56 = load i32, i32* %8, align 4
  %57 = sext i32 %56 to i64
  %58 = getelementptr inbounds [110 x i8], [110 x i8]* %2, i64 0, i64 %57
  %59 = load i8, i8* %58, align 1
  %60 = sext i8 %59 to i32
  %61 = load i32, i32* %8, align 4
  %62 = load i32, i32* %12, align 4
  %63 = sub nsw i32 %61, %62
  %64 = sext i32 %63 to i64
  %65 = getelementptr inbounds [110 x i8], [110 x i8]* %3, i64 0, i64 %64
  %66 = load i8, i8* %65, align 1
  %67 = sext i8 %66 to i32
  %68 = icmp ne i32 %60, %67
  br i1 %68, label %69, label %70

69:                                               ; preds = %55
  br label %76

70:                                               ; preds = %55
  %71 = load i32, i32* %11, align 4
  %72 = add nsw i32 %71, 1
  store i32 %72, i32* %11, align 4
  br label %73

73:                                               ; preds = %70
  %74 = load i32, i32* %8, align 4
  %75 = add nsw i32 %74, 1
  store i32 %75, i32* %8, align 4
  br label %48

76:                                               ; preds = %69, %48
  %77 = load i32, i32* %11, align 4
  %78 = load i32, i32* %6, align 4
  %79 = icmp eq i32 %77, %78
  br i1 %79, label %80, label %87

80:                                               ; preds = %76
  %81 = load i32, i32* %12, align 4
  %82 = load i32, i32* %10, align 4
  %83 = sext i32 %82 to i64
  %84 = getelementptr inbounds [30 x i32], [30 x i32]* %9, i64 0, i64 %83
  store i32 %81, i32* %84, align 4
  %85 = load i32, i32* %10, align 4
  %86 = add nsw i32 %85, 1
  store i32 %86, i32* %10, align 4
  br label %87

87:                                               ; preds = %80, %76
  br label %88

88:                                               ; preds = %87, %36
  br label %89

89:                                               ; preds = %88
  %90 = load i32, i32* %7, align 4
  %91 = add nsw i32 %90, 1
  store i32 %91, i32* %7, align 4
  br label %25

92:                                               ; preds = %25
  %93 = load i32, i32* %10, align 4
  %94 = icmp eq i32 %93, 0
  br i1 %94, label %95, label %98

95:                                               ; preds = %92
  %96 = getelementptr inbounds [110 x i8], [110 x i8]* %2, i64 0, i64 0
  %97 = call i32 (i8*, ...) @printf(i8* getelementptr inbounds ([3 x i8], [3 x i8]* @.str.1, i64 0, i64 0), i8* %96)
  br label %152

98:                                               ; preds = %92
  store i32 0, i32* %13, align 4
  store i32 0, i32* %7, align 4
  br label %99

99:                                               ; preds = %132, %98
  %100 = load i32, i32* %7, align 4
  %101 = load i32, i32* %10, align 4
  %102 = sub nsw i32 %101, 1
  %103 = icmp sle i32 %100, %102
  br i1 %103, label %104, label %135

104:                                              ; preds = %99
  %105 = load i32, i32* %13, align 4
  store i32 %105, i32* %8, align 4
  br label %106

106:                                              ; preds = %120, %104
  %107 = load i32, i32* %8, align 4
  %108 = load i32, i32* %7, align 4
  %109 = sext i32 %108 to i64
  %110 = getelementptr inbounds [30 x i32], [30 x i32]* %9, i64 0, i64 %109
  %111 = load i32, i32* %110, align 4
  %112 = icmp slt i32 %107, %111
  br i1 %112, label %113, label %123

113:                                              ; preds = %106
  %114 = load i32, i32* %8, align 4
  %115 = sext i32 %114 to i64
  %116 = getelementptr inbounds [110 x i8], [110 x i8]* %2, i64 0, i64 %115
  %117 = load i8, i8* %116, align 1
  %118 = sext i8 %117 to i32
  %119 = call i32 (i8*, ...) @printf(i8* getelementptr inbounds ([3 x i8], [3 x i8]* @.str.2, i64 0, i64 0), i32 %118)
  br label %120

120:                                              ; preds = %113
  %121 = load i32, i32* %8, align 4
  %122 = add nsw i32 %121, 1
  store i32 %122, i32* %8, align 4
  br label %106

123:                                              ; preds = %106
  %124 = getelementptr inbounds [110 x i8], [110 x i8]* %4, i64 0, i64 0
  %125 = call i32 (i8*, ...) @printf(i8* getelementptr inbounds ([3 x i8], [3 x i8]* @.str.1, i64 0, i64 0), i8* %124)
  %126 = load i32, i32* %7, align 4
  %127 = sext i32 %126 to i64
  %128 = getelementptr inbounds [30 x i32], [30 x i32]* %9, i64 0, i64 %127
  %129 = load i32, i32* %128, align 4
  %130 = load i32, i32* %6, align 4
  %131 = add nsw i32 %129, %130
  store i32 %131, i32* %13, align 4
  br label %132

132:                                              ; preds = %123
  %133 = load i32, i32* %7, align 4
  %134 = add nsw i32 %133, 1
  store i32 %134, i32* %7, align 4
  br label %99

135:                                              ; preds = %99
  %136 = load i32, i32* %13, align 4
  store i32 %136, i32* %8, align 4
  br label %137

137:                                              ; preds = %148, %135
  %138 = load i32, i32* %8, align 4
  %139 = load i32, i32* %5, align 4
  %140 = icmp slt i32 %138, %139
  br i1 %140, label %141, label %151

141:                                              ; preds = %137
  %142 = load i32, i32* %8, align 4
  %143 = sext i32 %142 to i64
  %144 = getelementptr inbounds [110 x i8], [110 x i8]* %2, i64 0, i64 %143
  %145 = load i8, i8* %144, align 1
  %146 = sext i8 %145 to i32
  %147 = call i32 (i8*, ...) @printf(i8* getelementptr inbounds ([3 x i8], [3 x i8]* @.str.2, i64 0, i64 0), i32 %146)
  br label %148

148:                                              ; preds = %141
  %149 = load i32, i32* %8, align 4
  %150 = add nsw i32 %149, 1
  store i32 %150, i32* %8, align 4
  br label %137

151:                                              ; preds = %137
  br label %152

152:                                              ; preds = %151, %95
  %153 = load i32, i32* %1, align 4
  ret i32 %153
}

declare dso_local i32 @gets(...) #1

declare dso_local i32 @__isoc99_scanf(i8*, ...) #1

; Function Attrs: nounwind readonly
declare dso_local i64 @strlen(i8*) #2

declare dso_local i32 @printf(i8*, ...) #1


!llvm.module.flags = !{!0}
!llvm.ident = !{!1}

!0 = !{i32 1, !"wchar_size", i32 4}
!1 = !{!"clang version 10.0.0-4ubuntu1 "}
